target datalayout = "e-m:e-p270:32:32-p271:32:32-p272:64:64-i64:64-i128:128-f80:128-n8:16:32:64-S128"
target triple = "x86_64-unknown-linux-gnu"

; Function Attrs: nounwind uwtable
define internal i64 @gf2_matrix_times(ptr noundef %mat, i64 noundef %vec) #0 {
entry:
  %mat.addr = alloca ptr, align 8
  %vec.addr = alloca i64, align 8
  %sum = alloca i64, align 8
  store ptr %mat, ptr %mat.addr, align 8
  store i64 %vec, ptr %vec.addr, align 8
  store i64 0, ptr %sum, align 8
  br label %while.cond

while.cond:                                       ; preds = %if.end, %entry
  %0 = load i64, ptr %vec.addr, align 8
  %tobool = icmp ne i64 %0, 0
  br i1 %tobool, label %while.body, label %while.end

while.body:                                       ; preds = %while.cond
  %1 = load i64, ptr %vec.addr, align 8
  %and = and i64 %1, 1
  %tobool1 = icmp ne i64 %and, 0
  br i1 %tobool1, label %if.then, label %if.end

if.then:                                          ; preds = %while.body
  %2 = load ptr, ptr %mat.addr, align 8
  %3 = load i64, ptr %2, align 8
  %4 = load i64, ptr %sum, align 8
  %xor = xor i64 %4, %3
  store i64 %xor, ptr %sum, align 8
  br label %if.end

if.end:                                           ; preds = %if.then, %while.body
  %5 = load i64, ptr %vec.addr, align 8
  %shr = lshr i64 %5, 1
  store i64 %shr, ptr %vec.addr, align 8
  %6 = load ptr, ptr %mat.addr, align 8
  %incdec.ptr = getelementptr inbounds i64, ptr %6, i32 1
  store ptr %incdec.ptr, ptr %mat.addr, align 8
  br label %while.cond, !llvm.loop !17

while.end:                                        ; preds = %while.cond
  %7 = load i64, ptr %sum, align 8
  ret i64 %7
}

; Function Attrs: nounwind uwtable
define internal void @gf2_matrix_square(ptr noundef %square, ptr noundef %mat) #0 {
entry:
  %square.addr = alloca ptr, align 8
  %mat.addr = alloca ptr, align 8
  %n = alloca i32, align 4
  store ptr %square, ptr %square.addr, align 8
  store ptr %mat, ptr %mat.addr, align 8
  store i32 0, ptr %n, align 4
  br label %for.cond

for.cond:                                         ; preds = %for.inc, %entry
  %0 = load i32, ptr %n, align 4
  %cmp = icmp slt i32 %0, 32
  br i1 %cmp, label %for.body, label %for.end

for.body:                                         ; preds = %for.cond
  %1 = load ptr, ptr %mat.addr, align 8
  %2 = load ptr, ptr %mat.addr, align 8
  %3 = load i32, ptr %n, align 4
  %idxprom = sext i32 %3 to i64
  %arrayidx = getelementptr inbounds i64, ptr %2, i64 %idxprom
  %4 = load i64, ptr %arrayidx, align 8
  %call = call i64 @gf2_matrix_times(ptr noundef %1, i64 noundef %4)
  %5 = load ptr, ptr %square.addr, align 8
  %6 = load i32, ptr %n, align 4
  %idxprom1 = sext i32 %6 to i64
  %arrayidx2 = getelementptr inbounds i64, ptr %5, i64 %idxprom1
  store i64 %call, ptr %arrayidx2, align 8
  br label %for.inc

for.inc:                                          ; preds = %for.body
  %7 = load i32, ptr %n, align 4
  %inc = add nsw i32 %7, 1
  store i32 %inc, ptr %n, align 4
  br label %for.cond, !llvm.loop !16

for.end:                                          ; preds = %for.cond
  ret void
}

; Function Attrs: nounwind uwtable
define internal i64 @crc32_combine_(i64 noundef %crc1, i64 noundef %crc2, i64 noundef %len2) #0 {
entry:
  %retval = alloca i64, align 8
  %crc1.addr = alloca i64, align 8
  %crc2.addr = alloca i64, align 8
  %len2.addr = alloca i64, align 8
  %n = alloca i32, align 4
  %row = alloca i64, align 8
  %even = alloca [32 x i64], align 16
  %odd = alloca [32 x i64], align 16
  store i64 %crc1, ptr %crc1.addr, align 8
  store i64 %crc2, ptr %crc2.addr, align 8
  store i64 %len2, ptr %len2.addr, align 8
  %0 = load i64, ptr %len2.addr, align 8
  %cmp = icmp sle i64 %0, 0
  br i1 %cmp, label %if.then, label %if.end

if.then:                                          ; preds = %entry
  %1 = load i64, ptr %crc1.addr, align 8
  store i64 %1, ptr %retval, align 8
  br label %return

if.end:                                           ; preds = %entry
  %arrayidx = getelementptr inbounds [32 x i64], ptr %odd, i64 0, i64 0
  store i64 3988292384, ptr %arrayidx, align 16
  store i64 1, ptr %row, align 8
  store i32 1, ptr %n, align 4
  br label %for.cond

for.cond:                                         ; preds = %for.inc, %if.end
  %2 = load i32, ptr %n, align 4
  %cmp1 = icmp slt i32 %2, 32
  br i1 %cmp1, label %for.body, label %for.end

for.body:                                         ; preds = %for.cond
  %3 = load i64, ptr %row, align 8
  %4 = load i32, ptr %n, align 4
  %idxprom = sext i32 %4 to i64
  %arrayidx2 = getelementptr inbounds [32 x i64], ptr %odd, i64 0, i64 %idxprom
  store i64 %3, ptr %arrayidx2, align 8
  %5 = load i64, ptr %row, align 8
  %shl = shl i64 %5, 1
  store i64 %shl, ptr %row, align 8
  br label %for.inc

for.inc:                                          ; preds = %for.body
  %6 = load i32, ptr %n, align 4
  %inc = add nsw i32 %6, 1
  store i32 %inc, ptr %n, align 4
  br label %for.cond, !llvm.loop !14

for.end:                                          ; preds = %for.cond
  %arraydecay = getelementptr inbounds [32 x i64], ptr %even, i64 0, i64 0
  %arraydecay3 = getelementptr inbounds [32 x i64], ptr %odd, i64 0, i64 0
  call void @gf2_matrix_square(ptr noundef %arraydecay, ptr noundef %arraydecay3)
  %arraydecay4 = getelementptr inbounds [32 x i64], ptr %odd, i64 0, i64 0
  %arraydecay5 = getelementptr inbounds [32 x i64], ptr %even, i64 0, i64 0
  call void @gf2_matrix_square(ptr noundef %arraydecay4, ptr noundef %arraydecay5)
  br label %do.body

do.body:                                          ; preds = %do.cond, %for.end
  %arraydecay6 = getelementptr inbounds [32 x i64], ptr %even, i64 0, i64 0
  %arraydecay7 = getelementptr inbounds [32 x i64], ptr %odd, i64 0, i64 0
  call void @gf2_matrix_square(ptr noundef %arraydecay6, ptr noundef %arraydecay7)
  %7 = load i64, ptr %len2.addr, align 8
  %and = and i64 %7, 1
  %tobool = icmp ne i64 %and, 0
  br i1 %tobool, label %if.then8, label %if.end10

if.then8:                                         ; preds = %do.body
  %arraydecay9 = getelementptr inbounds [32 x i64], ptr %even, i64 0, i64 0
  %8 = load i64, ptr %crc1.addr, align 8
  %call = call i64 @gf2_matrix_times(ptr noundef %arraydecay9, i64 noundef %8)
  store i64 %call, ptr %crc1.addr, align 8
  br label %if.end10

if.end10:                                         ; preds = %if.then8, %do.body
  %9 = load i64, ptr %len2.addr, align 8
  %shr = ashr i64 %9, 1
  store i64 %shr, ptr %len2.addr, align 8
  %10 = load i64, ptr %len2.addr, align 8
  %cmp11 = icmp eq i64 %10, 0
  br i1 %cmp11, label %if.then12, label %if.end13

if.then12:                                        ; preds = %if.end10
  br label %do.end

if.end13:                                         ; preds = %if.end10
  %arraydecay14 = getelementptr inbounds [32 x i64], ptr %odd, i64 0, i64 0
  %arraydecay15 = getelementptr inbounds [32 x i64], ptr %even, i64 0, i64 0
  call void @gf2_matrix_square(ptr noundef %arraydecay14, ptr noundef %arraydecay15)
  %11 = load i64, ptr %len2.addr, align 8
  %and16 = and i64 %11, 1
  %tobool17 = icmp ne i64 %and16, 0
  br i1 %tobool17, label %if.then18, label %if.end21

if.then18:                                        ; preds = %if.end13
  %arraydecay19 = getelementptr inbounds [32 x i64], ptr %odd, i64 0, i64 0
  %12 = load i64, ptr %crc1.addr, align 8
  %call20 = call i64 @gf2_matrix_times(ptr noundef %arraydecay19, i64 noundef %12)
  store i64 %call20, ptr %crc1.addr, align 8
  br label %if.end21

if.end21:                                         ; preds = %if.then18, %if.end13
  %13 = load i64, ptr %len2.addr, align 8
  %shr22 = ashr i64 %13, 1
  store i64 %shr22, ptr %len2.addr, align 8
  br label %do.cond

do.cond:                                          ; preds = %if.end21
  %14 = load i64, ptr %len2.addr, align 8
  %cmp23 = icmp ne i64 %14, 0
  br i1 %cmp23, label %do.body, label %do.end, !llvm.loop !15

do.end:                                           ; preds = %do.cond, %if.then12
  %15 = load i64, ptr %crc2.addr, align 8
  %16 = load i64, ptr %crc1.addr, align 8
  %xor = xor i64 %16, %15
  store i64 %xor, ptr %crc1.addr, align 8
  %17 = load i64, ptr %crc1.addr, align 8
  store i64 %17, ptr %retval, align 8
  br label %return

return:                                           ; preds = %do.end, %if.then
  %18 = load i64, ptr %retval, align 8
  ret i64 %18
}