; Function Attrs: nofree norecurse nosync nounwind memory(none) uwtable
define internal fastcc i64 @crc32_combine_(i64 noundef %crc1, i64 noundef %crc2, i64 noundef %len2) unnamed_addr #2 {
entry:
  %even = alloca [32 x i64], align 16
  %odd = alloca [32 x i64], align 16
  %cmp = icmp slt i64 %len2, 1
  br i1 %cmp, label %return, label %if.end

if.end:                                           ; preds = %entry
  store i64 3988292384, ptr %odd, align 16
  br label %for.body

for.body:                                         ; preds = %if.end, %for.body
  %indvars.iv = phi i64 [ 1, %if.end ], [ %indvars.iv.next, %for.body ]
  %row.0100 = phi i64 [ 1, %if.end ], [ %shl, %for.body ]
  %arrayidx2 = getelementptr inbounds nuw [32 x i64], ptr %odd, i64 0, i64 %indvars.iv
  store i64 %row.0100, ptr %arrayidx2, align 8
  %shl = shl i64 %row.0100, 1
  %indvars.iv.next = add nuw nsw i64 %indvars.iv, 1
  %exitcond.not = icmp eq i64 %indvars.iv.next, 32
  br i1 %exitcond.not, label %for.body.i, label %for.body, !llvm.loop !10

for.body.i:                                       ; preds = %for.body, %gf2_matrix_times.exit.i
  %indvars.iv.i = phi i64 [ %indvars.iv.next.i, %gf2_matrix_times.exit.i ], [ 0, %for.body ]
  %arrayidx.i = getelementptr inbounds nuw i64, ptr %odd, i64 %indvars.iv.i
  %0 = load i64, ptr %arrayidx.i, align 8
  %tobool.not5.i.i = icmp eq i64 %0, 0
  br i1 %tobool.not5.i.i, label %gf2_matrix_times.exit.i, label %while.body.i.i

while.body.i.i:                                   ; preds = %for.body.i, %if.end.i.i
  %sum.08.i.i = phi i64 [ %sum.1.i.i, %if.end.i.i ], [ 0, %for.body.i ]
  %vec.addr.07.i.i = phi i64 [ %shr.i.i, %if.end.i.i ], [ %0, %for.body.i ]
  %mat.addr.06.i.i = phi ptr [ %incdec.ptr.i.i, %if.end.i.i ], [ %odd, %for.body.i ]
  %and.i.i = and i64 %vec.addr.07.i.i, 1
  %tobool1.not.i.i = icmp eq i64 %and.i.i, 0
  br i1 %tobool1.not.i.i, label %if.end.i.i, label %if.then.i.i

if.then.i.i:                                      ; preds = %while.body.i.i
  %1 = load i64, ptr %mat.addr.06.i.i, align 8
  %xor.i.i = xor i64 %1, %sum.08.i.i
  br label %if.end.i.i

if.end.i.i:                                       ; preds = %if.then.i.i, %while.body.i.i
  %sum.1.i.i = phi i64 [ %xor.i.i, %if.then.i.i ], [ %sum.08.i.i, %while.body.i.i ]
  %shr.i.i = lshr i64 %vec.addr.07.i.i, 1
  %incdec.ptr.i.i = getelementptr inbounds nuw i8, ptr %mat.addr.06.i.i, i64 8
  %tobool.not.i.i = icmp ult i64 %vec.addr.07.i.i, 2
  br i1 %tobool.not.i.i, label %gf2_matrix_times.exit.i, label %while.body.i.i, !llvm.loop !11

gf2_matrix_times.exit.i:                          ; preds = %if.end.i.i, %for.body.i
  %sum.0.lcssa.i.i = phi i64 [ 0, %for.body.i ], [ %sum.1.i.i, %if.end.i.i ]
  %arrayidx2.i = getelementptr inbounds nuw i64, ptr %even, i64 %indvars.iv.i
  store i64 %sum.0.lcssa.i.i, ptr %arrayidx2.i, align 8
  %indvars.iv.next.i = add nuw nsw i64 %indvars.iv.i, 1
  %exitcond.not.i = icmp eq i64 %indvars.iv.next.i, 32
  br i1 %exitcond.not.i, label %for.body.i14, label %for.body.i, !llvm.loop !12

for.body.i14:                                     ; preds = %gf2_matrix_times.exit.i, %gf2_matrix_times.exit.i31
  %indvars.iv.i15 = phi i64 [ %indvars.iv.next.i34, %gf2_matrix_times.exit.i31 ], [ 0, %gf2_matrix_times.exit.i ]
  %arrayidx.i16 = getelementptr inbounds nuw i64, ptr %even, i64 %indvars.iv.i15
  %2 = load i64, ptr %arrayidx.i16, align 8
  %tobool.not5.i.i17 = icmp eq i64 %2, 0
  br i1 %tobool.not5.i.i17, label %gf2_matrix_times.exit.i31, label %while.body.i.i18

while.body.i.i18:                                 ; preds = %for.body.i14, %if.end.i.i26
  %sum.08.i.i19 = phi i64 [ %sum.1.i.i27, %if.end.i.i26 ], [ 0, %for.body.i14 ]
  %vec.addr.07.i.i20 = phi i64 [ %shr.i.i28, %if.end.i.i26 ], [ %2, %for.body.i14 ]
  %mat.addr.06.i.i21 = phi ptr [ %incdec.ptr.i.i29, %if.end.i.i26 ], [ %even, %for.body.i14 ]
  %and.i.i22 = and i64 %vec.addr.07.i.i20, 1
  %tobool1.not.i.i23 = icmp eq i64 %and.i.i22, 0
  br i1 %tobool1.not.i.i23, label %if.end.i.i26, label %if.then.i.i24

if.then.i.i24:                                    ; preds = %while.body.i.i18
  %3 = load i64, ptr %mat.addr.06.i.i21, align 8
  %xor.i.i25 = xor i64 %3, %sum.08.i.i19
  br label %if.end.i.i26

if.end.i.i26:                                     ; preds = %if.then.i.i24, %while.body.i.i18
  %sum.1.i.i27 = phi i64 [ %xor.i.i25, %if.then.i.i24 ], [ %sum.08.i.i19, %while.body.i.i18 ]
  %shr.i.i28 = lshr i64 %vec.addr.07.i.i20, 1
  %incdec.ptr.i.i29 = getelementptr inbounds nuw i8, ptr %mat.addr.06.i.i21, i64 8
  %tobool.not.i.i30 = icmp ult i64 %vec.addr.07.i.i20, 2
  br i1 %tobool.not.i.i30, label %gf2_matrix_times.exit.i31, label %while.body.i.i18, !llvm.loop !11

gf2_matrix_times.exit.i31:                        ; preds = %if.end.i.i26, %for.body.i14
  %sum.0.lcssa.i.i32 = phi i64 [ 0, %for.body.i14 ], [ %sum.1.i.i27, %if.end.i.i26 ]
  %arrayidx2.i33 = getelementptr inbounds nuw i64, ptr %odd, i64 %indvars.iv.i15
  store i64 %sum.0.lcssa.i.i32, ptr %arrayidx2.i33, align 8
  %indvars.iv.next.i34 = add nuw nsw i64 %indvars.iv.i15, 1
  %exitcond.not.i35 = icmp eq i64 %indvars.iv.next.i34, 32
  br i1 %exitcond.not.i35, label %do.body, label %for.body.i14, !llvm.loop !12

do.body:                                          ; preds = %gf2_matrix_times.exit.i31, %if.end21
  %crc1.addr.0 = phi i64 [ %crc1.addr.3, %if.end21 ], [ %crc1, %gf2_matrix_times.exit.i31 ]
  %len2.addr.0 = phi i64 [ %shr, %if.end21 ], [ %len2, %gf2_matrix_times.exit.i31 ]
  br label %for.body.i37

for.body.i37:                                     ; preds = %gf2_matrix_times.exit.i54, %do.body
  %indvars.iv.i38 = phi i64 [ 0, %do.body ], [ %indvars.iv.next.i57, %gf2_matrix_times.exit.i54 ]
  %arrayidx.i39 = getelementptr inbounds nuw i64, ptr %odd, i64 %indvars.iv.i38
  %4 = load i64, ptr %arrayidx.i39, align 8
  %tobool.not5.i.i40 = icmp eq i64 %4, 0
  br i1 %tobool.not5.i.i40, label %gf2_matrix_times.exit.i54, label %while.body.i.i41

while.body.i.i41:                                 ; preds = %for.body.i37, %if.end.i.i49
  %sum.08.i.i42 = phi i64 [ %sum.1.i.i50, %if.end.i.i49 ], [ 0, %for.body.i37 ]
  %vec.addr.07.i.i43 = phi i64 [ %shr.i.i51, %if.end.i.i49 ], [ %4, %for.body.i37 ]
  %mat.addr.06.i.i44 = phi ptr [ %incdec.ptr.i.i52, %if.end.i.i49 ], [ %odd, %for.body.i37 ]
  %and.i.i45 = and i64 %vec.addr.07.i.i43, 1
  %tobool1.not.i.i46 = icmp eq i64 %and.i.i45, 0
  br i1 %tobool1.not.i.i46, label %if.end.i.i49, label %if.then.i.i47

if.then.i.i47:                                    ; preds = %while.body.i.i41
  %5 = load i64, ptr %mat.addr.06.i.i44, align 8
  %xor.i.i48 = xor i64 %5, %sum.08.i.i42
  br label %if.end.i.i49

if.end.i.i49:                                     ; preds = %if.then.i.i47, %while.body.i.i41
  %sum.1.i.i50 = phi i64 [ %xor.i.i48, %if.then.i.i47 ], [ %sum.08.i.i42, %while.body.i.i41 ]
  %shr.i.i51 = lshr i64 %vec.addr.07.i.i43, 1
  %incdec.ptr.i.i52 = getelementptr inbounds nuw i8, ptr %mat.addr.06.i.i44, i64 8
  %tobool.not.i.i53 = icmp ult i64 %vec.addr.07.i.i43, 2
  br i1 %tobool.not.i.i53, label %gf2_matrix_times.exit.i54, label %while.body.i.i41, !llvm.loop !11

gf2_matrix_times.exit.i54:                        ; preds = %if.end.i.i49, %for.body.i37
  %sum.0.lcssa.i.i55 = phi i64 [ 0, %for.body.i37 ], [ %sum.1.i.i50, %if.end.i.i49 ]
  %arrayidx2.i56 = getelementptr inbounds nuw i64, ptr %even, i64 %indvars.iv.i38
  store i64 %sum.0.lcssa.i.i55, ptr %arrayidx2.i56, align 8
  %indvars.iv.next.i57 = add nuw nsw i64 %indvars.iv.i38, 1
  %exitcond.not.i58 = icmp eq i64 %indvars.iv.next.i57, 32
  br i1 %exitcond.not.i58, label %gf2_matrix_square.exit59, label %for.body.i37, !llvm.loop !12

gf2_matrix_square.exit59:                         ; preds = %gf2_matrix_times.exit.i54
  %and = and i64 %len2.addr.0, 1
  %tobool.not = icmp eq i64 %and, 0
  br i1 %tobool.not, label %if.end10, label %if.then8

if.then8:                                         ; preds = %gf2_matrix_square.exit59
  %tobool.not5.i = icmp eq i64 %crc1.addr.0, 0
  br i1 %tobool.not5.i, label %if.end10, label %while.body.i

while.body.i:                                     ; preds = %if.then8, %if.end.i
  %sum.08.i = phi i64 [ %sum.1.i, %if.end.i ], [ 0, %if.then8 ]
  %vec.addr.07.i = phi i64 [ %shr.i, %if.end.i ], [ %crc1.addr.0, %if.then8 ]
  %mat.addr.06.i = phi ptr [ %incdec.ptr.i, %if.end.i ], [ %even, %if.then8 ]
  %and.i = and i64 %vec.addr.07.i, 1
  %tobool1.not.i = icmp eq i64 %and.i, 0
  br i1 %tobool1.not.i, label %if.end.i, label %if.then.i

if.then.i:                                        ; preds = %while.body.i
  %6 = load i64, ptr %mat.addr.06.i, align 8
  %xor.i = xor i64 %6, %sum.08.i
  br label %if.end.i

if.end.i:                                         ; preds = %if.then.i, %while.body.i
  %sum.1.i = phi i64 [ %xor.i, %if.then.i ], [ %sum.08.i, %while.body.i ]
  %shr.i = lshr i64 %vec.addr.07.i, 1
  %incdec.ptr.i = getelementptr inbounds nuw i8, ptr %mat.addr.06.i, i64 8
  %tobool.not.i = icmp ult i64 %vec.addr.07.i, 2
  br i1 %tobool.not.i, label %if.end10, label %while.body.i, !llvm.loop !11

if.end10:                                         ; preds = %if.end.i, %if.then8, %gf2_matrix_square.exit59
  %crc1.addr.1 = phi i64 [ %crc1.addr.0, %gf2_matrix_square.exit59 ], [ 0, %if.then8 ], [ %sum.1.i, %if.end.i ]
  %shr = lshr i64 %len2.addr.0, 2
  %cmp11 = icmp ult i64 %len2.addr.0, 2
  br i1 %cmp11, label %do.end, label %for.body.i60

for.body.i60:                                     ; preds = %if.end10, %gf2_matrix_times.exit.i77
  %indvars.iv.i61 = phi i64 [ %indvars.iv.next.i80, %gf2_matrix_times.exit.i77 ], [ 0, %if.end10 ]
  %arrayidx.i62 = getelementptr inbounds nuw i64, ptr %even, i64 %indvars.iv.i61
  %7 = load i64, ptr %arrayidx.i62, align 8
  %tobool.not5.i.i63 = icmp eq i64 %7, 0
  br i1 %tobool.not5.i.i63, label %gf2_matrix_times.exit.i77, label %while.body.i.i64

while.body.i.i64:                                 ; preds = %for.body.i60, %if.end.i.i72
  %sum.08.i.i65 = phi i64 [ %sum.1.i.i73, %if.end.i.i72 ], [ 0, %for.body.i60 ]
  %vec.addr.07.i.i66 = phi i64 [ %shr.i.i74, %if.end.i.i72 ], [ %7, %for.body.i60 ]
  %mat.addr.06.i.i67 = phi ptr [ %incdec.ptr.i.i75, %if.end.i.i72 ], [ %even, %for.body.i60 ]
  %and.i.i68 = and i64 %vec.addr.07.i.i66, 1
  %tobool1.not.i.i69 = icmp eq i64 %and.i.i68, 0
  br i1 %tobool1.not.i.i69, label %if.end.i.i72, label %if.then.i.i70

if.then.i.i70:                                    ; preds = %while.body.i.i64
  %8 = load i64, ptr %mat.addr.06.i.i67, align 8
  %xor.i.i71 = xor i64 %8, %sum.08.i.i65
  br label %if.end.i.i72

if.end.i.i72:                                     ; preds = %if.then.i.i70, %while.body.i.i64
  %sum.1.i.i73 = phi i64 [ %xor.i.i71, %if.then.i.i70 ], [ %sum.08.i.i65, %while.body.i.i64 ]
  %shr.i.i74 = lshr i64 %vec.addr.07.i.i66, 1
  %incdec.ptr.i.i75 = getelementptr inbounds nuw i8, ptr %mat.addr.06.i.i67, i64 8
  %tobool.not.i.i76 = icmp ult i64 %vec.addr.07.i.i66, 2
  br i1 %tobool.not.i.i76, label %gf2_matrix_times.exit.i77, label %while.body.i.i64, !llvm.loop !11

gf2_matrix_times.exit.i77:                        ; preds = %if.end.i.i72, %for.body.i60
  %sum.0.lcssa.i.i78 = phi i64 [ 0, %for.body.i60 ], [ %sum.1.i.i73, %if.end.i.i72 ]
  %arrayidx2.i79 = getelementptr inbounds nuw i64, ptr %odd, i64 %indvars.iv.i61
  store i64 %sum.0.lcssa.i.i78, ptr %arrayidx2.i79, align 8
  %indvars.iv.next.i80 = add nuw nsw i64 %indvars.iv.i61, 1
  %exitcond.not.i81 = icmp eq i64 %indvars.iv.next.i80, 32
  br i1 %exitcond.not.i81, label %gf2_matrix_square.exit82, label %for.body.i60, !llvm.loop !12

gf2_matrix_square.exit82:                         ; preds = %gf2_matrix_times.exit.i77
  %9 = and i64 %len2.addr.0, 2
  %tobool17.not = icmp eq i64 %9, 0
  br i1 %tobool17.not, label %if.end21, label %if.then18

if.then18:                                        ; preds = %gf2_matrix_square.exit82
  %tobool.not5.i83 = icmp eq i64 %crc1.addr.1, 0
  br i1 %tobool.not5.i83, label %if.end21, label %while.body.i84

while.body.i84:                                   ; preds = %if.then18, %if.end.i92
  %sum.08.i85 = phi i64 [ %sum.1.i93, %if.end.i92 ], [ 0, %if.then18 ]
  %vec.addr.07.i86 = phi i64 [ %shr.i94, %if.end.i92 ], [ %crc1.addr.1, %if.then18 ]
  %mat.addr.06.i87 = phi ptr [ %incdec.ptr.i95, %if.end.i92 ], [ %odd, %if.then18 ]
  %and.i88 = and i64 %vec.addr.07.i86, 1
  %tobool1.not.i89 = icmp eq i64 %and.i88, 0
  br i1 %tobool1.not.i89, label %if.end.i92, label %if.then.i90

if.then.i90:                                      ; preds = %while.body.i84
  %10 = load i64, ptr %mat.addr.06.i87, align 8
  %xor.i91 = xor i64 %10, %sum.08.i85
  br label %if.end.i92

if.end.i92:                                       ; preds = %if.then.i90, %while.body.i84
  %sum.1.i93 = phi i64 [ %xor.i91, %if.then.i90 ], [ %sum.08.i85, %while.body.i84 ]
  %shr.i94 = lshr i64 %vec.addr.07.i86, 1
  %incdec.ptr.i95 = getelementptr inbounds nuw i8, ptr %mat.addr.06.i87, i64 8
  %tobool.not.i96 = icmp ult i64 %vec.addr.07.i86, 2
  br i1 %tobool.not.i96, label %if.end21, label %while.body.i84, !llvm.loop !11

if.end21:                                         ; preds = %if.end.i92, %if.then18, %gf2_matrix_square.exit82
  %crc1.addr.3 = phi i64 [ %crc1.addr.1, %gf2_matrix_square.exit82 ], [ 0, %if.then18 ], [ %sum.1.i93, %if.end.i92 ]
  %cmp23.not = icmp ult i64 %len2.addr.0, 4
  br i1 %cmp23.not, label %do.end, label %do.body, !llvm.loop !13

do.end:                                           ; preds = %if.end10, %if.end21
  %crc1.addr.2 = phi i64 [ %crc1.addr.1, %if.end10 ], [ %crc1.addr.3, %if.end21 ]
  %xor = xor i64 %crc1.addr.2, %crc2
  br label %return

return:                                           ; preds = %entry, %do.end
  %retval.0 = phi i64 [ %xor, %do.end ], [ %crc1, %entry ]
  ret i64 %retval.0
}